target datalayout = "e-m:e-p270:32:32-p271:32:32-p272:64:64-i64:64-i128:128-f80:128-n8:16:32:64-S128"
target triple = "x86_64-pc-linux-gnu"

%"class.base::HistogramSamples" = type { ptr, %"struct.base::HistogramSamples::Metadata", ptr }
%"struct.base::HistogramSamples::Metadata" = type <{ i64, i64, i32, [4 x i8] }>

; Function Attrs: mustprogress nounwind uwtable
define linkonce_odr void @_ZN4base16HistogramSamples8MetadataC2Ev(ptr noundef nonnull align 8 dereferenceable(20) %0) unnamed_addr #1 comdat align 2 {
  %2 = alloca ptr, align 8
  store ptr %0, ptr %2, align 8, !tbaa !18
  %3 = load ptr, ptr %2, align 8
  %4 = getelementptr inbounds nuw %"struct.base::HistogramSamples::Metadata", ptr %3, i32 0, i32 0
  store i64 0, ptr %4, align 8, !tbaa !17
  %5 = getelementptr inbounds nuw %"struct.base::HistogramSamples::Metadata", ptr %3, i32 0, i32 1
  store i64 0, ptr %5, align 8, !tbaa !19
  %6 = getelementptr inbounds nuw %"struct.base::HistogramSamples::Metadata", ptr %3, i32 0, i32 2
  store i32 0, ptr %6, align 8, !tbaa !20
  ret void
}

; Function Attrs: mustprogress uwtable
define void @_ZN4base16HistogramSamplesC2Em(ptr noundef nonnull align 8 dereferenceable(40) %0, i64 noundef %1) unnamed_addr #0 align 2 {
  %3 = alloca ptr, align 8
  %4 = alloca i64, align 8
  store ptr %0, ptr %3, align 8, !tbaa !3
  store i64 %1, ptr %4, align 8, !tbaa !8
  %5 = load ptr, ptr %3, align 8
  store ptr getelementptr inbounds inrange(-16, 88) ({ [13 x ptr] }, ptr @_ZTVN4base16HistogramSamplesE, i32 0, i32 0, i32 2), ptr %5, align 8, !tbaa !10
  %6 = getelementptr inbounds nuw %"class.base::HistogramSamples", ptr %5, i32 0, i32 1
  call void @_ZN4base16HistogramSamples8MetadataC2Ev(ptr noundef nonnull align 8 dereferenceable(20) %6)
  %7 = getelementptr inbounds nuw %"class.base::HistogramSamples", ptr %5, i32 0, i32 2
  %8 = getelementptr inbounds nuw %"class.base::HistogramSamples", ptr %5, i32 0, i32 1
  store ptr %8, ptr %7, align 8, !tbaa !12
  %9 = load i64, ptr %4, align 8, !tbaa !8
  %10 = getelementptr inbounds nuw %"class.base::HistogramSamples", ptr %5, i32 0, i32 2
  %11 = load ptr, ptr %10, align 8, !tbaa !12
  %12 = getelementptr inbounds nuw %"struct.base::HistogramSamples::Metadata", ptr %11, i32 0, i32 0
  store i64 %9, ptr %12, align 8, !tbaa !17
  ret void
}